(lp0
(dp1
S'result'
p2
F0.0016181799197186276
sS'p_dir'
p3
S'P0_du_hdu'
p4
sS'dirname'
p5
S'/global/cscratch1/sd/frankfu/higgs-classifier/MG5/vbf/SubProcesses/P0_du_hdu/GF2'
p6
sS'resultABS'
p7
F0.003506343216373277
sS'time_spend'
p8
F31.8110714
sS'wgt_frac'
p9
F1.0
sS'err_percABS'
p10
F2.38578643963273
sS'errorABS'
p11
F8.365386098321575e-05
sS'mint_mode'
p12
I2
sS'niters_done'
p13
I2
sS'nevents'
p14
I1929
sS'split'
p15
I0
sS'npoints_done'
p16
I102400
sS'error'
p17
F5.9254831225895676e-05
sS'npoints'
p18
I-1
sS'niters'
p19
I12
sS'run_mode'
p20
S'all'
p21
sS'err_perc'
p22
F3.661819708910924
sS'channel'
p23
S'2'
p24
sS'accuracy'
p25
F0.02292924397710062
sa(dp26
g2
F0.0018152758446411648
sg3
S'P0_ud_hud'
p27
sg5
S'/global/cscratch1/sd/frankfu/higgs-classifier/MG5/vbf/SubProcesses/P0_ud_hud/GF2'
p28
sg7
F0.0032570170545967443
sg8
F37.02771
sg9
F1.0
sg10
F1.9179221256437538
sg11
F6.246705072610146e-05
sg12
I2
sg13
I2
sg14
I1752
sg15
I0
sg16
I153600
sg17
F5.3911293635955516e-05
sg18
I-1
sg19
I12
sg20
g21
sg22
F2.9698678465372543
sg23
g24
sg25
F0.023790684154908384
sa(dp29
g2
F0.0003642300864595049
sg3
g27
sg5
S'/global/cscratch1/sd/frankfu/higgs-classifier/MG5/vbf/SubProcesses/P0_ud_hud/GF1'
p30
sg7
F0.0007720132945417784
sg8
F15.3117332
sg9
F1.0
sg10
F3.2065006427481566
sg11
F2.4754611251583346e-05
sg12
I2
sg13
I2
sg14
I421
sg15
I0
sg16
I38400
sg17
F1.559076370359364e-05
sg18
I-1
sg19
I12
sg20
g21
sg22
F4.280471131625481
sg23
S'1'
p31
sg25
F0.048865748792565236
sa(dp32
g2
F0.00035697128439502975
sg3
S'P0_dxu_hdxu'
p33
sg5
S'/global/cscratch1/sd/frankfu/higgs-classifier/MG5/vbf/SubProcesses/P0_dxu_hdxu/GF1'
p34
sg7
F0.0003890462242135055
sg8
F13.3625736
sg9
F1.0
sg10
F4.776176429041751
sg11
F1.858153405896237e-05
sg12
I2
sg13
I2
sg14
I231
sg15
I0
sg16
I38400
sg17
F1.860343160406495e-05
sg18
I-1
sg19
I12
sg20
g21
sg22
F5.211464455913522
sg23
g31
sg25
F0.06883611402191286
sa(dp35
g2
F0.0003902490965885051
sg3
g4
sg5
S'/global/cscratch1/sd/frankfu/higgs-classifier/MG5/vbf/SubProcesses/P0_du_hdu/GF1'
p36
sg7
F0.0007610241020541655
sg8
F25.9353333
sg9
F1.0
sg10
F2.0840796679803795
sg11
F1.5860348579341116e-05
sg12
I2
sg13
I2
sg14
I430
sg15
I0
sg16
I76800
sg17
F2.386394370630473e-05
sg18
I-1
sg19
I12
sg20
g21
sg22
F6.115054183320216
sg23
g31
sg25
F0.04921729510773899
sa(dp37
g2
F0.00034191822679889686
sg3
S'P0_udx_hcsx'
p38
sg5
S'/global/cscratch1/sd/frankfu/higgs-classifier/MG5/vbf/SubProcesses/P0_udx_hcsx/GF1'
p39
sg7
F0.0003740185169223248
sg8
F7.16147184
sg9
F1.0
sg10
F3.9768343248157
sg11
F1.487409676213363e-05
sg12
I2
sg13
I2
sg14
I226
sg15
I0
sg16
I25600
sg17
F1.4835778631418751e-05
sg18
I-1
sg19
I12
sg20
g21
sg22
F4.338984432129904
sg23
g31
sg25
F0.07020538022152445
sa(dp40
g2
F0.00033084032645356963
sg3
S'P0_uu_huu'
p41
sg5
S'/global/cscratch1/sd/frankfu/higgs-classifier/MG5/vbf/SubProcesses/P0_uu_huu/GF2'
p42
sg7
F0.0006480677655388569
sg8
F16.6084805
sg9
F1.0
sg10
F2.248873003718828
sg11
F1.4574221025007182e-05
sg12
I2
sg13
I2
sg14
I352
sg15
I0
sg16
I38400
sg17
F1.315639504098553e-05
sg18
I-1
sg19
I12
sg20
g21
sg22
F3.9766600347711565
sg23
g24
sg25
F0.053334316944164836
sa(dp43
g2
F0.000302946505058374
sg3
S'P0_uxu_hddx'
p44
sg5
S'/global/cscratch1/sd/frankfu/higgs-classifier/MG5/vbf/SubProcesses/P0_uxu_hddx/GF2'
p45
sg7
F0.0005807808521364255
sg8
F15.7720528
sg9
F1.0
sg10
F2.479842959050547
sg11
F1.4402453069218917e-05
sg12
I2
sg13
I2
sg14
I329
sg15
I0
sg16
I38400
sg17
F1.359062477561249e-05
sg18
I-1
sg19
I12
sg20
g21
sg22
F4.486146744948831
sg23
g24
sg25
F0.056339216478081156
sa(dp46
g2
F0.0003015655028279083
sg3
g41
sg5
S'/global/cscratch1/sd/frankfu/higgs-classifier/MG5/vbf/SubProcesses/P0_uu_huu/GF1'
p47
sg7
F0.0005661547839621829
sg8
F12.1647291
sg9
F1.0
sg10
F2.4990023867832183
sg11
F1.4148221564102322e-05
sg12
I2
sg13
I2
sg14
I311
sg15
I0
sg16
I25600
sg17
F1.266766583198231e-05
sg18
I-1
sg19
I12
sg20
g21
sg22
F4.200634924483141
sg23
g31
sg25
F0.05706231106938671
sa(dp48
g2
F0.0003440908123514467
sg3
S'P0_dxu_hcsx'
p49
sg5
S'/global/cscratch1/sd/frankfu/higgs-classifier/MG5/vbf/SubProcesses/P0_dxu_hcsx/GF1'
p50
sg7
F0.0003688913773591316
sg8
F6.98604488
sg9
F1.0
sg10
F3.7946346015767887
sg11
F1.3998079847502812e-05
sg12
I2
sg13
I2
sg14
I204
sg15
I0
sg16
I25600
sg17
F1.402254408566927e-05
sg18
I-1
sg19
I12
sg20
g21
sg22
F4.075245133644241
sg23
g31
sg25
F0.07069158116779395
sa(dp51
g2
F0.00030946674086472763
sg3
S'P0_uux_hddx'
p52
sg5
S'/global/cscratch1/sd/frankfu/higgs-classifier/MG5/vbf/SubProcesses/P0_uux_hddx/GF2'
p53
sg7
F0.0005739989043369013
sg8
F15.0591059
sg9
F1.0
sg10
F2.12423966162599
sg11
F1.2193112383223082e-05
sg12
I2
sg13
I2
sg14
I304
sg15
I0
sg16
I38400
sg17
F1.104222571731584e-05
sg18
I-1
sg19
I12
sg20
g21
sg22
F3.5681461880075047
sg23
g24
sg25
F0.056671070440412
sa(dp54
g2
F0.0003066485952534507
sg3
S'P0_udx_hudx'
p55
sg5
S'/global/cscratch1/sd/frankfu/higgs-classifier/MG5/vbf/SubProcesses/P0_udx_hudx/GF1'
p56
sg7
F0.0003309622006116165
sg8
F16.4618225
sg9
F1.0
sg10
F3.562792928278513
sg11
F1.1791497878665617e-05
sg12
I2
sg13
I2
sg14
I165
sg15
I0
sg16
I64000
sg17
F1.1801630804310121e-05
sg18
I-1
sg19
I12
sg20
g21
sg22
F3.8485846623741597
sg23
g31
sg25
F0.07463245879810457
sa(dp57
g2
F0.000150666660385629
sg3
S'P0_ddx_huux'
p58
sg5
S'/global/cscratch1/sd/frankfu/higgs-classifier/MG5/vbf/SubProcesses/P0_ddx_huux/GF2'
p59
sg7
F0.0003248528682171284
sg8
F15.6129045
sg9
F1.0
sg10
F3.215256499304447
sg11
F1.0444852958528129e-05
sg12
I2
sg13
I2
sg14
I179
sg15
I0
sg16
I38400
sg17
F8.36627594973792e-06
sg18
I-1
sg19
I12
sg20
g21
sg22
F5.552838251225961
sg23
g24
sg25
F0.07533097610269168
sa(dp60
g2
F0.00020423987800738638
sg3
S'P0_us_hcd'
p61
sg5
S'/global/cscratch1/sd/frankfu/higgs-classifier/MG5/vbf/SubProcesses/P0_us_hcd/GF1'
p62
sg7
F0.0003901069433195813
sg8
F11.1927214
sg9
F1.0
sg10
F2.639358997581674
sg11
F1.029632270869621e-05
sg12
I2
sg13
I2
sg14
I225
sg15
I0
sg16
I38400
sg17
F9.542098164035932e-06
sg18
I-1
sg19
I12
sg20
g21
sg22
F4.672005416929812
sg23
g31
sg25
F0.06874246600627283
sa(dp63
g2
F0.00010966832673084272
sg3
S'P0_ucx_hdsx'
p64
sg5
S'/global/cscratch1/sd/frankfu/higgs-classifier/MG5/vbf/SubProcesses/P0_ucx_hdsx/GF1'
p65
sg7
F0.0002438554044462458
sg8
F11.3659344
sg9
F1.0
sg10
F3.9323148338141913
sg11
F9.589162242097314e-06
sg12
I2
sg13
I2
sg14
I131
sg15
I0
sg16
I38400
sg17
F7.715548623760403e-06
sg18
I-1
sg19
I12
sg20
g21
sg22
F7.03534817550062
sg23
g31
sg25
F0.08694622988735713
sa(dp66
g2
F0.00016387517399079412
sg3
S'P0_dxd_huux'
p67
sg5
S'/global/cscratch1/sd/frankfu/higgs-classifier/MG5/vbf/SubProcesses/P0_dxd_huux/GF2'
p68
sg7
F0.00031634226789763404
sg8
F10.9629278
sg9
F1.0
sg10
F2.9961322991553985
sg11
F9.478032864361712e-06
sg12
I2
sg13
I2
sg14
I168
sg15
I0
sg16
I25600
sg17
F7.973780941754699e-06
sg18
I-1
sg19
I12
sg20
g21
sg22
F4.865765050051227
sg23
g24
sg25
F0.0763375707933369
sa(dp69
g2
F0.00016410470970182586
sg3
S'P0_uxd_huxd'
p70
sg5
S'/global/cscratch1/sd/frankfu/higgs-classifier/MG5/vbf/SubProcesses/P0_uxd_huxd/GF1'
p71
sg7
F0.00017856627138571358
sg8
F12.4158163
sg9
F1.0
sg10
F5.1401573683832655
sg11
F9.178587356080015e-06
sg12
I2
sg13
I2
sg14
I94
sg15
I0
sg16
I38400
sg17
F9.18779319831745e-06
sg18
I-1
sg19
I12
sg20
g21
sg22
F5.59873827814658
sg23
g31
sg25
F0.10160550354968788
sa(dp72
g2
F0.00017840859276673963
sg3
S'P0_su_hcd'
p73
sg5
S'/global/cscratch1/sd/frankfu/higgs-classifier/MG5/vbf/SubProcesses/P0_su_hcd/GF1'
p74
sg7
F0.0003890660998882066
sg8
F11.6644135
sg9
F1.0
sg10
F2.27749245220064
sg11
F8.86095105902531e-06
sg12
I2
sg13
I2
sg14
I187
sg15
I0
sg16
I38400
sg17
F7.186284102830093e-06
sg18
I-1
sg19
I12
sg20
g21
sg22
F4.02799214510133
sg23
g31
sg25
F0.06883435573240344
sa(dp75
g2
F0.00015633590750468404
sg3
S'P0_dux_hdux'
p76
sg5
S'/global/cscratch1/sd/frankfu/higgs-classifier/MG5/vbf/SubProcesses/P0_dux_hdux/GF1'
p77
sg7
F0.00016740616833526136
sg8
F9.14988232
sg9
F1.0
sg10
F4.159339242224364
sg11
F6.962990453472704e-06
sg12
I2
sg13
I2
sg14
I93
sg15
I0
sg16
I25600
sg17
F6.9620298550930855e-06
sg18
I-1
sg19
I12
sg20
g21
sg22
F4.453250674279351
sg23
g31
sg25
F0.10493762228363292
sa(dp78
g2
F0.0001054712802574394
sg3
g33
sg5
S'/global/cscratch1/sd/frankfu/higgs-classifier/MG5/vbf/SubProcesses/P0_dxu_hdxu/GF2'
p79
sg7
F0.00016888994473248064
sg8
F14.417016
sg9
F1.0
sg10
F3.990721497178204
sg11
F6.739927331011493e-06
sg12
I2
sg13
I2
sg14
I75
sg15
I0
sg16
I38400
sg17
F6.947063698230198e-06
sg18
I-1
sg19
I12
sg20
g21
sg22
F6.5866875620296526
sg23
g24
sg25
F0.10447564255837567
sa(dp80
g2
F0.00011992523179733328
sg3
S'P0_uxc_hsdx'
p81
sg5
S'/global/cscratch1/sd/frankfu/higgs-classifier/MG5/vbf/SubProcesses/P0_uxc_hsdx/GF1'
p82
sg7
F0.0002449328279460366
sg8
F11.8441753
sg9
F1.0
sg10
F2.663409015907056
sg11
F6.523563022430856e-06
sg12
I2
sg13
I2
sg14
I120
sg15
I0
sg16
I38400
sg17
F5.067505457594329e-06
sg18
I-1
sg19
I12
sg20
g21
sg22
F4.225554023658775
sg23
g31
sg25
F0.08675478728219004
sa(dp83
g2
F0.00011595829935631624
sg3
S'P0_dd_hdd'
p84
sg5
S'/global/cscratch1/sd/frankfu/higgs-classifier/MG5/vbf/SubProcesses/P0_dd_hdd/GF1'
p85
sg7
F0.00023158934645877013
sg8
F17.484623
sg9
F1.0
sg10
F2.8153956212918314
sg11
F6.520156319578583e-06
sg12
I2
sg13
I2
sg14
I122
sg15
I0
sg16
I38400
sg17
F4.828004301768104e-06
sg18
I-1
sg19
I12
sg20
g21
sg22
F4.163569428465513
sg23
g31
sg25
F0.08921906325005852
sa(dp86
g2
F0.00011430052921509612
sg3
g84
sg5
S'/global/cscratch1/sd/frankfu/higgs-classifier/MG5/vbf/SubProcesses/P0_dd_hdd/GF2'
p87
sg7
F0.00023361346557357457
sg8
F12.0366669
sg9
F1.0
sg10
F2.709535466953008
sg11
F6.329839705294059e-06
sg12
I2
sg13
I2
sg14
I126
sg15
I0
sg16
I25600
sg17
F4.8873864597225345e-06
sg18
I-1
sg19
I12
sg20
g21
sg22
F4.27590886348848
sg23
g24
sg25
F0.08883170781546888
sa(dp88
g2
F0.00016338241286000302
sg3
S'P0_uxd_hscx'
p89
sg5
S'/global/cscratch1/sd/frankfu/higgs-classifier/MG5/vbf/SubProcesses/P0_uxd_hscx/GF1'
p90
sg7
F0.00017399508262176002
sg8
F9.33607769
sg9
F1.0
sg10
F3.6270232058030762
sg11
F6.3108420236474714e-06
sg12
I2
sg13
I2
sg14
I102
sg15
I0
sg16
I38400
sg17
F6.315214307751115e-06
sg18
I-1
sg19
I12
sg20
g21
sg22
F3.8652962685539562
sg23
g31
sg25
F0.1029315376021212
sa(dp91
g2
F8.371851466292824e-05
sg3
S'P0_dxs_hcux'
p92
sg5
S'/global/cscratch1/sd/frankfu/higgs-classifier/MG5/vbf/SubProcesses/P0_dxs_hcux/GF1'
p93
sg7
F0.00016124260428987403
sg8
F7.92792225
sg9
F1.0
sg10
F3.5698788134043244
sg11
F5.756165568725585e-06
sg12
I2
sg13
I2
sg14
I98
sg15
I0
sg16
I25600
sg17
F4.739787364916846e-06
sg18
I-1
sg19
I12
sg20
g21
sg22
F5.6615760372725425
sg23
g31
sg25
F0.10692445508752375
sa(dp94
g2
F8.14678495674301e-05
sg3
g55
sg5
S'/global/cscratch1/sd/frankfu/higgs-classifier/MG5/vbf/SubProcesses/P0_udx_hudx/GF2'
p95
sg7
F0.00016263597095871106
sg8
F26.3642426
sg9
F1.0
sg10
F3.042873806790289
sg11
F4.94880736072168e-06
sg12
I2
sg13
I2
sg14
I83
sg15
I0
sg16
I76800
sg17
F5.321344238570319e-06
sg18
I-1
sg19
I12
sg20
g21
sg22
F6.5318334371473705
sg23
g24
sg25
F0.10646543778489864
sa(dp96
g2
F3.7108976525129596e-05
sg3
S'P0_cd_hsu'
p97
sg5
S'/global/cscratch1/sd/frankfu/higgs-classifier/MG5/vbf/SubProcesses/P0_cd_hsu/GF1'
p98
sg7
F0.0001008334419786601
sg8
F10.763072
sg9
F1.0
sg10
F4.592138318698245
sg11
F4.6304111271644125e-06
sg12
I2
sg13
I2
sg14
I61
sg15
I0
sg16
I38400
sg17
F4.737910762770067e-06
sg18
I-1
sg19
I12
sg20
g21
sg22
F12.767559783174379
sg23
g31
sg25
F0.13521181781014258
sa(dp99
g2
F7.970016290069966e-05
sg3
S'P0_dsx_hucx'
p100
sg5
S'/global/cscratch1/sd/frankfu/higgs-classifier/MG5/vbf/SubProcesses/P0_dsx_hucx/GF1'
p101
sg7
F0.00015167603968801728
sg8
F11.4070435
sg9
F1.0
sg10
F2.6606893921561325
sg11
F4.035628298421601e-06
sg12
I2
sg13
I2
sg14
I79
sg15
I0
sg16
I38400
sg17
F5.92317621643045e-06
sg18
I-1
sg19
I12
sg20
g21
sg22
F7.431824479217536
sg23
g31
sg25
F0.11024488718456152
sa(dp102
g2
F6.212899688783062e-05
sg3
S'P0_uxu_huux'
p103
sg5
S'/global/cscratch1/sd/frankfu/higgs-classifier/MG5/vbf/SubProcesses/P0_uxu_huux/GF2'
p104
sg7
F0.00010965310774837063
sg8
F12.0813932
sg9
F1.0
sg10
F3.279131964172915
sg11
F3.595670105885788e-06
sg12
I2
sg13
I2
sg14
I63
sg15
I0
sg16
I25600
sg17
F3.3207187063432446e-06
sg18
I-1
sg19
I12
sg20
g21
sg22
F5.344877388473791
sg23
g24
sg25
F0.12966013673539278
sa(dp105
g2
F5.857376624126883e-05
sg3
S'P0_uux_hccx'
p106
sg5
S'/global/cscratch1/sd/frankfu/higgs-classifier/MG5/vbf/SubProcesses/P0_uux_hccx/GF1'
p107
sg7
F6.630034721872202e-05
sg8
F10.6943712
sg9
F1.0
sg10
F5.226781441088018
sg11
F3.4653742438050783e-06
sg12
I2
sg13
I2
sg14
I35
sg15
I0
sg16
I38400
sg17
F3.51118095953851e-06
sg18
I-1
sg19
I12
sg20
g21
sg22
F5.9944599517055925
sg23
g31
sg25
F0.16674739052269738
sa(dp108
g2
F0.000129713800234069
sg3
S'P0_dux_hscx'
p109
sg5
S'/global/cscratch1/sd/frankfu/higgs-classifier/MG5/vbf/SubProcesses/P0_dux_hscx/GF1'
p110
sg7
F0.00014233640826570536
sg8
F10.20858
sg9
F1.0
sg10
F2.301482350109225
sg11
F3.2758473140146168e-06
sg12
I2
sg13
I2
sg14
I65
sg15
I0
sg16
I38400
sg17
F3.274085843985968e-06
sg18
I-1
sg19
I12
sg20
g21
sg22
F2.524084436719816
sg23
g31
sg25
F0.1138043719430698
sa(dp111
g2
F6.726977377385205e-05
sg3
S'P0_uxu_hssx'
p112
sg5
S'/global/cscratch1/sd/frankfu/higgs-classifier/MG5/vbf/SubProcesses/P0_uxu_hssx/GF1'
p113
sg7
F7.760202136572476e-05
sg8
F11.3956337
sg9
F1.0
sg10
F3.9623097205403606
sg11
F3.07483243590992e-06
sg12
I2
sg13
I2
sg14
I42
sg15
I0
sg16
I38400
sg17
F3.0901080960185102e-06
sg18
I-1
sg19
I12
sg20
g21
sg22
F4.5936056012420305
sg23
g31
sg25
F0.15412760528817987
sa(dp114
g2
F5.4829479611877624e-05
sg3
S'P0_dc_hdc'
p115
sg5
S'/global/cscratch1/sd/frankfu/higgs-classifier/MG5/vbf/SubProcesses/P0_dc_hdc/GF1'
p116
sg7
F0.00011393079274584895
sg8
F14.2050066
sg9
F1.0
sg10
F2.4006360400914297
sg11
F2.7350636714187217e-06
sg12
I2
sg13
I2
sg14
I58
sg15
I0
sg16
I38400
sg17
F2.327244835808503e-06
sg18
I-1
sg19
I12
sg20
g21
sg22
F4.244513813157467
sg23
g31
sg25
F0.12720271707504668
sa(dp117
g2
F6.011610373328282e-05
sg3
S'P0_uux_huux'
p118
sg5
S'/global/cscratch1/sd/frankfu/higgs-classifier/MG5/vbf/SubProcesses/P0_uux_huux/GF2'
p119
sg7
F0.00010633280348696979
sg8
F17.2431545
sg9
F1.0
sg10
F2.5240096262950806
sg11
F2.6838501959205487e-06
sg12
I2
sg13
I2
sg14
I67
sg15
I0
sg16
I38400
sg17
F2.8475190192953908e-06
sg18
I-1
sg19
I12
sg20
g21
sg22
F4.736699224435738
sg23
g24
sg25
F0.13166893279074598
sa(dp120
g2
F4.911250261201151e-05
sg3
S'P0_dxd_hddx'
p121
sg5
S'/global/cscratch1/sd/frankfu/higgs-classifier/MG5/vbf/SubProcesses/P0_dxd_hddx/GF1'
p122
sg7
F5.743231873797566e-05
sg8
F10.5083437
sg9
F1.0
sg10
F4.520062507236253
sg11
F2.595976706311659e-06
sg12
I2
sg13
I2
sg14
I38
sg15
I0
sg16
I38400
sg17
F2.58431535350668e-06
sg18
I-1
sg19
I12
sg20
g21
sg22
F5.262031491090479
sg23
g31
sg25
F0.17915905885362504
sa(dp123
g2
F5.7855460664105705e-05
sg3
S'P0_us_hus'
p124
sg5
S'/global/cscratch1/sd/frankfu/higgs-classifier/MG5/vbf/SubProcesses/P0_us_hus/GF1'
p125
sg7
F0.00010693718395218584
sg8
F14.106699
sg9
F1.0
sg10
F2.4114412057118297
sg11
F2.5787273180508675e-06
sg12
I2
sg13
I2
sg14
I62
sg15
I0
sg16
I38400
sg17
F1.9713319859251315e-06
sg18
I-1
sg19
I12
sg20
g21
sg22
F3.4073395376975575
sg23
g31
sg25
F0.13129632671786418
sa(dp126
g2
F4.4661841916539074e-05
sg3
S'P0_dc_hsu'
p127
sg5
S'/global/cscratch1/sd/frankfu/higgs-classifier/MG5/vbf/SubProcesses/P0_dc_hsu/GF1'
p128
sg7
F9.714921468412317e-05
sg8
F11.9124813
sg9
F1.0
sg10
F2.6425079618149994
sg11
F2.567175732868701e-06
sg12
I2
sg13
I2
sg14
I49
sg15
I0
sg16
I38400
sg17
F2.140035377695831e-06
sg18
I-1
sg19
I12
sg20
g21
sg22
F4.791641557674624
sg23
g31
sg25
F0.13775180572242898
sa(dp129
g2
F3.702246347204063e-05
sg3
S'P0_usx_husx'
p130
sg5
S'/global/cscratch1/sd/frankfu/higgs-classifier/MG5/vbf/SubProcesses/P0_usx_husx/GF1'
p131
sg7
F7.467896974311649e-05
sg8
F13.0369987
sg9
F1.0
sg10
F3.271472056143712
sg11
F2.4431016269620737e-06
sg12
I2
sg13
I2
sg14
I34
sg15
I0
sg16
I38400
sg17
F1.845499862190799e-06
sg18
I-1
sg19
I12
sg20
g21
sg22
F4.984811082559433
sg23
g31
sg25
F0.15711505027632555
sa(dp132
g2
F5.931765559383954e-05
sg3
g52
sg5
S'/global/cscratch1/sd/frankfu/higgs-classifier/MG5/vbf/SubProcesses/P0_uux_hddx/GF1'
p133
sg7
F6.805326642954723e-05
sg8
F16.5035019
sg9
F1.0
sg10
F3.57317557651146
sg11
F2.431662695078854e-06
sg12
I2
sg13
I2
sg14
I41
sg15
I0
sg16
I64000
sg17
F2.4295884858602133e-06
sg18
I-1
sg19
I12
sg20
g21
sg22
F4.09589431938463
sg23
g31
sg25
F0.1645858368341267
sa(dp134
g2
F6.3752620548211e-05
sg3
S'P0_uux_hssx'
p135
sg5
S'/global/cscratch1/sd/frankfu/higgs-classifier/MG5/vbf/SubProcesses/P0_uux_hssx/GF1'
p136
sg7
F7.34840254434699e-05
sg8
F12.225152
sg9
F1.0
sg10
F3.0344334099417734
sg11
F2.229823819026764e-06
sg12
I2
sg13
I2
sg14
I39
sg15
I0
sg16
I38400
sg17
F2.2378085136274763e-06
sg18
I-1
sg19
I12
sg20
g21
sg22
F3.5101435743103315
sg23
g31
sg25
F0.1583873447477904
sa(dp137
g2
F3.949381086976428e-05
sg3
S'P0_dxc_hdxc'
p138
sg5
S'/global/cscratch1/sd/frankfu/higgs-classifier/MG5/vbf/SubProcesses/P0_dxc_hdxc/GF1'
p139
sg7
F7.791550656359939e-05
sg8
F14.4828129
sg9
F1.0
sg10
F2.7777372280739523
sg11
F2.164288032259504e-06
sg12
I2
sg13
I2
sg14
I48
sg15
I0
sg16
I38400
sg17
F1.898183578518628e-06
sg18
I-1
sg19
I12
sg20
g21
sg22
F4.806281127891463
sg23
g31
sg25
F0.15381723433407568
sa(dp140
g2
F3.380032981063737e-05
sg3
g70
sg5
S'/global/cscratch1/sd/frankfu/higgs-classifier/MG5/vbf/SubProcesses/P0_uxd_huxd/GF2'
p141
sg7
F6.696435049074803e-05
sg8
F18.3089695
sg9
F1.0
sg10
F3.1983811102309336
sg11
F2.1417751366849206e-06
sg12
I2
sg13
I2
sg14
I33
sg15
I0
sg16
I51200
sg17
F2.120618579530685e-06
sg18
I-1
sg19
I12
sg20
g21
sg22
F6.2739582465946855
sg23
g24
sg25
F0.1659186163168506
sa(dp142
g2
F4.046220687333477e-05
sg3
S'P0_uc_huc'
p143
sg5
S'/global/cscratch1/sd/frankfu/higgs-classifier/MG5/vbf/SubProcesses/P0_uc_huc/GF1'
p144
sg7
F8.481824505582248e-05
sg8
F13.7298346
sg9
F1.0
sg10
F2.452567269074878
sg11
F2.080224516442823e-06
sg12
I2
sg13
I2
sg14
I47
sg15
I0
sg16
I38400
sg17
F1.5387877613354667e-06
sg18
I-1
sg19
I12
sg20
g21
sg22
F3.8030247983076575
sg23
g31
sg25
F0.14742539717395287
sa(dp145
g2
F4.853020480288305e-05
sg3
S'P0_ddx_hddx'
p146
sg5
S'/global/cscratch1/sd/frankfu/higgs-classifier/MG5/vbf/SubProcesses/P0_ddx_hddx/GF1'
p147
sg7
F5.720880987665682e-05
sg8
F13.3705463
sg9
F1.0
sg10
F3.622920169073771
sg11
F2.0726295115084674e-06
sg12
I2
sg13
I2
sg14
I23
sg15
I0
sg16
I38400
sg17
F2.073192243067127e-06
sg18
I-1
sg19
I12
sg20
g21
sg22
F4.271962691045483
sg23
g31
sg25
F0.17950869557882548
sa(dp148
g2
F5.2633055366859645e-05
sg3
S'P0_dxd_hssx'
p149
sg5
S'/global/cscratch1/sd/frankfu/higgs-classifier/MG5/vbf/SubProcesses/P0_dxd_hssx/GF1'
p150
sg7
F6.086599879299188e-05
sg8
F10.3448162
sg9
F1.0
sg10
F3.3725948360302285
sg11
F2.0527635321906653e-06
sg12
I2
sg13
I2
sg14
I33
sg15
I0
sg16
I38400
sg17
F2.04778974228357e-06
sg18
I-1
sg19
I12
sg20
g21
sg22
F3.8906913687799305
sg23
g31
sg25
F0.17403218431114237
sa(dp151
g2
F3.096230170968628e-05
sg3
g76
sg5
S'/global/cscratch1/sd/frankfu/higgs-classifier/MG5/vbf/SubProcesses/P0_dux_hdux/GF2'
p152
sg7
F5.757722699778606e-05
sg8
F10.3534536
sg9
F1.0
sg10
F3.5314972411519965
sg11
F2.033338182958637e-06
sg12
I2
sg13
I2
sg14
I29
sg15
I0
sg16
I25600
sg17
F1.973796450551948e-06
sg18
I-1
sg19
I12
sg20
g21
sg22
F6.374837597860056
sg23
g24
sg25
F0.17893346633893809
sa(dp153
g2
F4.86532884072107e-05
sg3
S'P0_ds_hds'
p154
sg5
S'/global/cscratch1/sd/frankfu/higgs-classifier/MG5/vbf/SubProcesses/P0_ds_hds/GF1'
p155
sg7
F8.810373010296129e-05
sg8
F11.6819563
sg9
F1.0
sg10
F2.183920556202721
sg11
F1.924115472499936e-06
sg12
I2
sg13
I2
sg14
I42
sg15
I0
sg16
I25600
sg17
F1.7916436289408654e-06
sg18
I-1
sg19
I12
sg20
g21
sg22
F3.6824718073431053
sg23
g31
sg25
F0.1446504535667028
sa(dp156
g2
F6.182598350209839e-05
sg3
g44
sg5
S'/global/cscratch1/sd/frankfu/higgs-classifier/MG5/vbf/SubProcesses/P0_uxu_hddx/GF1'
p157
sg7
F6.992828574527304e-05
sg8
F20.2973595
sg9
F1.0
sg10
F2.7382372533133785
sg11
F1.914802370880495e-06
sg12
I2
sg13
I2
sg14
I38
sg15
I0
sg16
I76800
sg17
F1.9143399731245787e-06
sg18
I-1
sg19
I12
sg20
g21
sg22
F3.0963356580645507
sg23
g31
sg25
F0.16236428587683877
sa(dp158
g2
F4.952024610721994e-05
sg3
g121
sg5
S'/global/cscratch1/sd/frankfu/higgs-classifier/MG5/vbf/SubProcesses/P0_dxd_hddx/GF2'
p159
sg7
F8.587338495536089e-05
sg8
F13.9361372
sg9
F1.0
sg10
F2.182821473903554
sg11
F1.8744626871734813e-06
sg12
I2
sg13
I2
sg14
I37
sg15
I0
sg16
I38400
sg17
F2.26546652739863e-06
sg18
I-1
sg19
I12
sg20
g21
sg22
F4.574828894213291
sg23
g24
sg25
F0.14651687815128617
sa(dp160
g2
F4.86775984265112e-05
sg3
g146
sg5
S'/global/cscratch1/sd/frankfu/higgs-classifier/MG5/vbf/SubProcesses/P0_ddx_hddx/GF2'
p161
sg7
F9.077149550649757e-05
sg8
F27.0813618
sg9
F1.0
sg10
F1.9651347824021965
sg11
F1.7837822307048306e-06
sg12
I2
sg13
I2
sg14
I52
sg15
I0
sg16
I76800
sg17
F1.670785684506373e-06
sg18
I-1
sg19
I12
sg20
g21
sg22
F3.4323502771583234
sg23
g24
sg25
F0.14250897036743115
sa(dp162
g2
F5.042508050904621e-05
sg3
g103
sg5
S'/global/cscratch1/sd/frankfu/higgs-classifier/MG5/vbf/SubProcesses/P0_uxu_huux/GF1'
p163
sg7
F5.693666217479858e-05
sg8
F12.8934517
sg9
F1.0
sg10
F3.0883224713348865
sg11
F1.758387732372335e-06
sg12
I2
sg13
I2
sg14
I31
sg15
I0
sg16
I38400
sg17
F1.757278581901031e-06
sg18
I-1
sg19
I12
sg20
g21
sg22
F3.4849296504063627
sg23
g31
sg25
F0.17993719488893042
sa(dp164
g2
F3.8065479640082353e-05
sg3
S'P0_dxd_hccx'
p165
sg5
S'/global/cscratch1/sd/frankfu/higgs-classifier/MG5/vbf/SubProcesses/P0_dxd_hccx/GF1'
p166
sg7
F4.418530707245455e-05
sg8
F10.7720337
sg9
F1.0
sg10
F3.9509394919164547
sg11
F1.7457347467501613e-06
sg12
I2
sg13
I2
sg14
I31
sg15
I0
sg16
I38400
sg17
F1.7471873142591585e-06
sg18
I-1
sg19
I12
sg20
g21
sg22
F4.589952184444295
sg23
g31
sg25
F0.2
sa(dp167
g2
F4.0989058802738425e-05
sg3
S'P0_ddx_hccx'
p168
sg5
S'/global/cscratch1/sd/frankfu/higgs-classifier/MG5/vbf/SubProcesses/P0_ddx_hccx/GF1'
p169
sg7
F4.72423726879902e-05
sg8
F10.3536673
sg9
F1.0
sg10
F3.5150326888717975
sg11
F1.6605848429814978e-06
sg12
I2
sg13
I2
sg14
I19
sg15
I0
sg16
I38400
sg17
F1.662554086852992e-06
sg18
I-1
sg19
I12
sg20
g21
sg22
F4.056092370537474
sg23
g31
sg25
F0.19753820222175955
sa(dp170
g2
F3.920416583616734e-05
sg3
g58
sg5
S'/global/cscratch1/sd/frankfu/higgs-classifier/MG5/vbf/SubProcesses/P0_ddx_huux/GF1'
p171
sg7
F4.4052665100984695e-05
sg8
F12.0985613
sg9
F1.0
sg10
F3.5809431843225936
sg11
F1.5775009084461691e-06
sg12
I2
sg13
I2
sg14
I14
sg15
I0
sg16
I38400
sg17
F1.5771864821596776e-06
sg18
I-1
sg19
I12
sg20
g21
sg22
F4.0230073731212075
sg23
g31
sg25
F0.2
sa(dp172
g2
F4.7664383681341035e-05
sg3
g118
sg5
S'/global/cscratch1/sd/frankfu/higgs-classifier/MG5/vbf/SubProcesses/P0_uux_huux/GF1'
p173
sg7
F5.5132097842443e-05
sg8
F13.0190315
sg9
F1.0
sg10
F2.8577807419217103
sg11
F1.5755544747587709e-06
sg12
I2
sg13
I2
sg14
I30
sg15
I0
sg16
I38400
sg17
F1.5724393820315963e-06
sg18
I-1
sg19
I12
sg20
g21
sg22
F3.298981882455667
sg23
g31
sg25
F0.1828583044872846
sa(dp174
g2
F3.691516457368374e-05
sg3
g67
sg5
S'/global/cscratch1/sd/frankfu/higgs-classifier/MG5/vbf/SubProcesses/P0_dxd_huux/GF1'
p175
sg7
F4.182409719642797e-05
sg8
F14.2031441
sg9
F1.0
sg10
F3.154639682443268
sg11
F1.319399566982159e-06
sg12
I2
sg13
I2
sg14
I21
sg15
I0
sg16
I76800
sg17
F1.3155345214255493e-06
sg18
I-1
sg19
I12
sg20
g21
sg22
F3.5636696642641374
sg23
g31
sg25
F0.2
sa(dp176
g2
F2.1442589900578013e-05
sg3
S'P0_uxdx_huxdx'
p177
sg5
S'/global/cscratch1/sd/frankfu/higgs-classifier/MG5/vbf/SubProcesses/P0_uxdx_huxdx/GF2'
p178
sg7
F4.1741688012169174e-05
sg8
F14.3132935
sg9
F1.0
sg10
F3.1471546446983405
sg11
F1.3136754730504727e-06
sg12
I2
sg13
I2
sg14
I29
sg15
I0
sg16
I38400
sg17
F1.0948278262424768e-06
sg18
I-1
sg19
I12
sg20
g21
sg22
F5.105856294966329
sg23
g24
sg25
F0.2
sa(dp179
g2
F4.470347143027285e-05
sg3
S'P0_uxu_hccx'
p180
sg5
S'/global/cscratch1/sd/frankfu/higgs-classifier/MG5/vbf/SubProcesses/P0_uxu_hccx/GF1'
p181
sg7
F5.097757419396086e-05
sg8
F15.2462044
sg9
F1.0
sg10
F2.5638642589222393
sg11
F1.3069958048245294e-06
sg12
I2
sg13
I2
sg14
I20
sg15
I0
sg16
I64000
sg17
F1.306112593496868e-06
sg18
I-1
sg19
I12
sg20
g21
sg22
F2.92172520770362
sg23
g31
sg25
F0.1901635888375595
sa(dp182
g2
F2.2253699377093905e-05
sg3
S'P0_dxux_hdxux'
p183
sg5
S'/global/cscratch1/sd/frankfu/higgs-classifier/MG5/vbf/SubProcesses/P0_dxux_hdxux/GF2'
p184
sg7
F4.13344621098159e-05
sg8
F10.5334702
sg9
F1.0
sg10
F2.9939215029761628
sg11
F1.2375213492453129e-06
sg12
I2
sg13
I2
sg14
I24
sg15
I0
sg16
I38400
sg17
F1.0534890519132831e-06
sg18
I-1
sg19
I12
sg20
g21
sg22
F4.733995162160124
sg23
g24
sg25
F0.2
sa(dp185
g2
F2.2867625350852562e-05
sg3
S'P0_dxs_hdxs'
p186
sg5
S'/global/cscratch1/sd/frankfu/higgs-classifier/MG5/vbf/SubProcesses/P0_dxs_hdxs/GF1'
p187
sg7
F4.6754418125548365e-05
sg8
F10.4299889
sg9
F1.0
sg10
F2.557909810411776
sg11
F1.195935848034343e-06
sg12
I2
sg13
I2
sg14
I29
sg15
I0
sg16
I25600
sg17
F1.0393390190833323e-06
sg18
I-1
sg19
I12
sg20
g21
sg22
F4.545023819207284
sg23
g31
sg25
F0.1985663347596974
sa(dp188
g2
F4.230230770543474e-05
sg3
S'P0_ddx_hssx'
p189
sg5
S'/global/cscratch1/sd/frankfu/higgs-classifier/MG5/vbf/SubProcesses/P0_ddx_hssx/GF1'
p190
sg7
F5.085726419108762e-05
sg8
F10.6791439
sg9
F1.0
sg10
F2.3371917875653536
sg11
F1.1886318020545154e-06
sg12
I2
sg13
I2
sg14
I23
sg15
I0
sg16
I38400
sg17
F1.1900949529603308e-06
sg18
I-1
sg19
I12
sg20
g21
sg22
F2.813309763730537
sg23
g31
sg25
F0.19038838531097296
sa(dp191
g2
F2.028293172698107e-05
sg3
S'P0_ucx_hucx'
p192
sg5
S'/global/cscratch1/sd/frankfu/higgs-classifier/MG5/vbf/SubProcesses/P0_ucx_hucx/GF1'
p193
sg7
F4.382901889808413e-05
sg8
F13.9661627
sg9
F1.0
sg10
F2.266324907819537
sg11
F9.933079721402125e-07
sg12
I2
sg13
I2
sg14
I21
sg15
I0
sg16
I38400
sg17
F9.830991393640293e-07
sg18
I-1
sg19
I12
sg20
g21
sg22
F4.846928208392459
sg23
g31
sg25
F0.2
sa(dp194
g2
F2.2264562634570195e-05
sg3
S'P0_dsx_hdsx'
p195
sg5
S'/global/cscratch1/sd/frankfu/higgs-classifier/MG5/vbf/SubProcesses/P0_dsx_hdsx/GF1'
p196
sg7
F4.412221991598695e-05
sg8
F13.9691439
sg9
F1.0
sg10
F2.2224192224633663
sg11
F9.805806967904537e-07
sg12
I2
sg13
I2
sg14
I21
sg15
I0
sg16
I38400
sg17
F8.88143354501325e-07
sg18
I-1
sg19
I12
sg20
g21
sg22
F3.989044694380407
sg23
g31
sg25
F0.2
sa(dp197
g2
F2.0384769032347402e-05
sg3
S'P0_uxc_huxc'
p198
sg5
S'/global/cscratch1/sd/frankfu/higgs-classifier/MG5/vbf/SubProcesses/P0_uxc_huxc/GF1'
p199
sg7
F4.2635676841522303e-05
sg8
F12.4528027
sg9
F1.0
sg10
F2.2769228598347695
sg11
F9.707814724499e-07
sg12
I2
sg13
I2
sg14
I27
sg15
I0
sg16
I38400
sg17
F8.028309459962022e-07
sg18
I-1
sg19
I12
sg20
g21
sg22
F3.9383862761566566
sg23
g31
sg25
F0.2
sa(dp200
g2
F1.4312716320685262e-05
sg3
S'P0_dcx_hdcx'
p201
sg5
S'/global/cscratch1/sd/frankfu/higgs-classifier/MG5/vbf/SubProcesses/P0_dcx_hdcx/GF1'
p202
sg7
F2.6932001874929498e-05
sg8
F9.97550392
sg9
F1.0
sg10
F3.0452632587492943
sg11
F8.201503579428991e-07
sg12
I2
sg13
I2
sg14
I17
sg15
I0
sg16
I25600
sg17
F6.477458994552201e-07
sg18
I-1
sg19
I12
sg20
g21
sg22
F4.5256671406186815
sg23
g31
sg25
F0.2
sa(dp203
g2
F1.2910825056413369e-05
sg3
S'P0_uxs_huxs'
p204
sg5
S'/global/cscratch1/sd/frankfu/higgs-classifier/MG5/vbf/SubProcesses/P0_uxs_huxs/GF1'
p205
sg7
F2.677388924106907e-05
sg8
F14.2567616
sg9
F1.0
sg10
F2.5020496890629706
sg11
F6.698960125062329e-07
sg12
I2
sg13
I2
sg14
I11
sg15
I0
sg16
I38400
sg17
F5.531651681990923e-07
sg18
I-1
sg19
I12
sg20
g21
sg22
F4.284506728129749
sg23
g31
sg25
F0.2
sa(dp206
g2
F9.665174083042586e-06
sg3
S'P0_uxsx_hdxcx'
p207
sg5
S'/global/cscratch1/sd/frankfu/higgs-classifier/MG5/vbf/SubProcesses/P0_uxsx_hdxcx/GF1'
p208
sg7
F1.5198112470345834e-05
sg8
F11.3181181
sg9
F1.0
sg10
F4.325649483628973
sg11
F6.574170735948651e-07
sg12
I2
sg13
I2
sg14
I10
sg15
I0
sg16
I38400
sg17
F7.844496876398097e-07
sg18
I-1
sg19
I12
sg20
g21
sg22
F8.116249959906215
sg23
g31
sg25
F0.2
sa(dp209
g2
F7.349875033011571e-06
sg3
S'P0_cxdx_huxsx'
p210
sg5
S'/global/cscratch1/sd/frankfu/higgs-classifier/MG5/vbf/SubProcesses/P0_cxdx_huxsx/GF1'
p211
sg7
F1.3474453798407128e-05
sg8
F11.1833448
sg9
F1.0
sg10
F4.253532512131349
sg11
F5.731402731473646e-07
sg12
I2
sg13
I2
sg14
I4
sg15
I0
sg16
I38400
sg17
F4.753438559719608e-07
sg18
I-1
sg19
I12
sg20
g21
sg22
F6.467373306851874
sg23
g31
sg25
F0.2
sa(dp212
g2
F7.935075937881491e-06
sg3
S'P0_sxux_hdxcx'
p213
sg5
S'/global/cscratch1/sd/frankfu/higgs-classifier/MG5/vbf/SubProcesses/P0_sxux_hdxcx/GF1'
p214
sg7
F1.4949938618430931e-05
sg8
F9.50165844
sg9
F1.0
sg10
F3.2894279827952477
sg11
F4.917674643253803e-07
sg12
I2
sg13
I2
sg14
I7
sg15
I0
sg16
I38400
sg17
F4.4260665609762024e-07
sg18
I-1
sg19
I12
sg20
g21
sg22
F5.577850288547932
sg23
g31
sg25
F0.2
sa(dp215
g2
F6.8126678435290936e-06
sg3
S'P0_dxcx_huxsx'
p216
sg5
S'/global/cscratch1/sd/frankfu/higgs-classifier/MG5/vbf/SubProcesses/P0_dxcx_huxsx/GF1'
p217
sg7
F1.3672238530683977e-05
sg8
F10.1980171
sg9
F1.0
sg10
F3.5297281116678363
sg11
F4.825928469118339e-07
sg12
I2
sg13
I2
sg14
I7
sg15
I0
sg16
I38400
sg17
F5.500781506656163e-07
sg18
I-1
sg19
I12
sg20
g21
sg22
F8.074342728863545
sg23
g31
sg25
F0.2
sa(dp218
g2
F5.7929747004582105e-06
sg3
S'P0_dxsx_hdxsx'
p219
sg5
S'/global/cscratch1/sd/frankfu/higgs-classifier/MG5/vbf/SubProcesses/P0_dxsx_hdxsx/GF1'
p220
sg7
F1.0367006561714269e-05
sg8
F10.9004431
sg9
F1.0
sg10
F4.318372243325105
sg11
F4.476859338247613e-07
sg12
I2
sg13
I2
sg14
I4
sg15
I0
sg16
I38400
sg17
F4.851186668405198e-07
sg18
I-1
sg19
I12
sg20
g21
sg22
F8.374258337467761
sg23
g31
sg25
F0.2
sa(dp221
g2
F6.2948417480420015e-06
sg3
g177
sg5
S'/global/cscratch1/sd/frankfu/higgs-classifier/MG5/vbf/SubProcesses/P0_uxdx_huxdx/GF1'
p222
sg7
F1.097991527398743e-05
sg8
F15.3101759
sg9
F1.0
sg10
F3.737737049263358
sg11
F4.104003611735545e-07
sg12
I2
sg13
I2
sg14
I12
sg15
I0
sg16
I38400
sg17
F3.677080752000383e-07
sg18
I-1
sg19
I12
sg20
g21
sg22
F5.841418893722201
sg23
g31
sg25
F0.2
sa(dp223
g2
F4.0921638870193e-06
sg3
S'P0_dxdx_hdxdx'
p224
sg5
S'/global/cscratch1/sd/frankfu/higgs-classifier/MG5/vbf/SubProcesses/P0_dxdx_hdxdx/GF1'
p225
sg7
F7.526692059041916e-06
sg8
F13.4493217
sg9
F1.0
sg10
F4.008520461309829
sg11
F3.017089912464773e-07
sg12
I2
sg13
I2
sg14
I5
sg15
I0
sg16
I38400
sg17
F2.6374579489323294e-07
sg18
I-1
sg19
I12
sg20
g21
sg22
F6.445142525446196
sg23
g31
sg25
F0.2
sa(dp226
g2
F3.6976356252124324e-06
sg3
g224
sg5
S'/global/cscratch1/sd/frankfu/higgs-classifier/MG5/vbf/SubProcesses/P0_dxdx_hdxdx/GF2'
p227
sg7
F7.619640127070172e-06
sg8
F12.5628262
sg9
F1.0
sg10
F3.9001236566881987
sg11
F2.971753871503705e-07
sg12
I2
sg13
I2
sg14
I1
sg15
I0
sg16
I38400
sg17
F2.9843567820892624e-07
sg18
I-1
sg19
I12
sg20
g21
sg22
F8.070986664398033
sg23
g24
sg25
F0.2
sa(dp228
g2
F5.357052659560701e-06
sg3
g183
sg5
S'/global/cscratch1/sd/frankfu/higgs-classifier/MG5/vbf/SubProcesses/P0_dxux_hdxux/GF1'
p229
sg7
F9.582917285019645e-06
sg8
F11.7258291
sg9
F1.0
sg10
F2.9542663552782527
sg11
F2.8310490120547953e-07
sg12
I2
sg13
I2
sg14
I5
sg15
I0
sg16
I38400
sg17
F2.6973114815688734e-07
sg18
I-1
sg19
I12
sg20
g21
sg22
F5.0350662070775005
sg23
g31
sg25
F0.2
sa(dp230
g2
F3.2105845037812867e-06
sg3
S'P0_uxsx_huxsx'
p231
sg5
S'/global/cscratch1/sd/frankfu/higgs-classifier/MG5/vbf/SubProcesses/P0_uxsx_huxsx/GF1'
p232
sg7
F6.910438834666517e-06
sg8
F14.4150915
sg9
F1.0
sg10
F3.2067063319720845
sg11
F2.2159747967830913e-07
sg12
I2
sg13
I2
sg14
I3
sg15
I0
sg16
I38400
sg17
F2.0085902336964482e-07
sg18
I-1
sg19
I12
sg20
g21
sg22
F6.256151275042965
sg23
g31
sg25
F0.2
sa(dp233
g2
F3.497332959154101e-06
sg3
S'P0_dxcx_hdxcx'
p234
sg5
S'/global/cscratch1/sd/frankfu/higgs-classifier/MG5/vbf/SubProcesses/P0_dxcx_hdxcx/GF1'
p235
sg7
F6.370667527732358e-06
sg8
F10.9105606
sg9
F1.0
sg10
F2.396001298837722
sg11
F1.526412767091003e-07
sg12
I2
sg13
I2
sg14
I2
sg15
I0
sg16
I38400
sg17
F1.4244332826234408e-07
sg18
I-1
sg19
I12
sg20
g21
sg22
F4.072912986151505
sg23
g31
sg25
F0.2
sa(dp236
g2
F2.175324081630661e-06
sg3
S'P0_uxcx_huxcx'
p237
sg5
S'/global/cscratch1/sd/frankfu/higgs-classifier/MG5/vbf/SubProcesses/P0_uxcx_huxcx/GF1'
p238
sg7
F4.265113462022478e-06
sg8
F13.5530834
sg9
F1.0
sg10
F3.328020721242776
sg11
F1.419438598006232e-07
sg12
I2
sg13
I2
sg14
I0
sg15
I0
sg16
I38400
sg17
F2.2890633946174848e-07
sg18
I-1
sg19
I12
sg20
g21
sg22
F10.522861462102524
sg23
g31
sg25
F0.2
sa(dp239
g2
F1.6003668330283773e-06
sg3
S'P0_uxux_huxux'
p240
sg5
S'/global/cscratch1/sd/frankfu/higgs-classifier/MG5/vbf/SubProcesses/P0_uxux_huxux/GF2'
p241
sg7
F3.3064284902889158e-06
sg8
F16.552187
sg9
F1.0
sg10
F3.067713136745886
sg11
F1.0143174115370174e-07
sg12
I2
sg13
I2
sg14
I0
sg15
I0
sg16
I38400
sg17
F7.88382967562042e-08
sg18
I-1
sg19
I12
sg20
g21
sg22
F4.926264099526378
sg23
g24
sg25
F0.2
sa(dp242
g2
F1.6654005814351586e-06
sg3
g240
sg5
S'/global/cscratch1/sd/frankfu/higgs-classifier/MG5/vbf/SubProcesses/P0_uxux_huxux/GF1'
p243
sg7
F3.2119894678784248e-06
sg8
F17.6303635
sg9
F1.0
sg10
F2.8203608118939845
sg11
F9.058969223420522e-08
sg12
I2
sg13
I2
sg14
I0
sg15
I0
sg16
I38400
sg17
F7.47722277826885e-08
sg18
I-1
sg19
I12
sg20
g21
sg22
F4.489744306337011
sg23
g31
sg25
F0.2
sa.