(lp0
(dp1
S'result'
p2
F0.05065967294546452
sS'p_dir'
p3
S'P1_ug_hwpd'
p4
sS'dirname'
p5
S'/global/cscratch1/sd/frankfu/higgs-classifier/MG5/vh/SubProcesses/P1_ug_hwpd/GF2'
p6
sS'resultABS'
p7
F0.12641824826797743
sS'time_spend'
p8
F26.8351707
sS'wgt_frac'
p9
F1.0
sS'err_percABS'
p10
F1.7342334029589381
sS'errorABS'
p11
F0.002192387488898824
sS'mint_mode'
p12
I2
sS'niters_done'
p13
I2
sS'nevents'
p14
I277
sS'split'
p15
I0
sS'npoints_done'
p16
I25600
sS'error'
p17
F0.0017574437143816335
sS'npoints'
p18
I-1
sS'niters'
p19
I12
sS'run_mode'
p20
S'all'
p21
sS'err_perc'
p22
F3.469117766065197
sS'channel'
p23
S'2'
p24
sS'accuracy'
p25
F0.05982791853102225
sa(dp26
g2
F0.058733159145232756
sg3
S'P1_udx_hwpg'
p27
sg5
S'/global/cscratch1/sd/frankfu/higgs-classifier/MG5/vh/SubProcesses/P1_udx_hwpg/GF2'
p28
sg7
F0.12884176442512169
sg8
F21.1947803
sg9
F1.0
sg10
F1.3221148489433856
sg11
F0.0017034360991051904
sg12
I2
sg13
I2
sg14
I279
sg15
I0
sg16
I25600
sg17
F0.0014701170418729662
sg18
I-1
sg19
I12
sg20
g21
sg22
F2.5030443845830357
sg23
g24
sg25
F0.05926256516295426
sa(dp29
g2
F0.05968248871242395
sg3
S'P1_dxu_hwpg'
p30
sg5
S'/global/cscratch1/sd/frankfu/higgs-classifier/MG5/vh/SubProcesses/P1_dxu_hwpg/GF1'
p31
sg7
F0.12625280848949164
sg8
F20.6721725
sg9
F1.0
sg10
F1.3372028994588154
sg11
F0.0016882562157696677
sg12
I2
sg13
I2
sg14
I290
sg15
I0
sg16
I25600
sg17
F0.0014688045916666918
sg18
I-1
sg19
I12
sg20
g21
sg22
F2.461031071850954
sg23
S'1'
p32
sg25
F0.05986710449967366
sa(dp33
g2
F0.05697788856857819
sg3
g27
sg5
S'/global/cscratch1/sd/frankfu/higgs-classifier/MG5/vh/SubProcesses/P1_udx_hwpg/GF1'
p34
sg7
F0.1265902250820838
sg8
F20.921217
sg9
F1.0
sg10
F1.2773702429190685
sg11
F0.0016170258656428094
sg12
I2
sg13
I2
sg14
I297
sg15
I0
sg16
I25600
sg17
F0.0013050139741972065
sg18
I-1
sg19
I12
sg20
g21
sg22
F2.290386686804831
sg23
g32
sg25
F0.0597872656619701
sa(dp35
g2
F0.05807704071492404
sg3
g30
sg5
S'/global/cscratch1/sd/frankfu/higgs-classifier/MG5/vh/SubProcesses/P1_dxu_hwpg/GF2'
p36
sg7
F0.12811197842374836
sg8
F19.8701992
sg9
F1.0
sg10
F1.2039058366880055
sg11
F0.0015423475857399848
sg12
I2
sg13
I2
sg14
I297
sg15
I0
sg16
I25600
sg17
F0.0013990129805700811
sg18
I-1
sg19
I12
sg20
g21
sg22
F2.408891643493428
sg23
g24
sg25
F0.05943111916609027
sa(dp37
g2
F0.05155039786762513
sg3
S'P1_gu_hwpd'
p38
sg5
S'/global/cscratch1/sd/frankfu/higgs-classifier/MG5/vh/SubProcesses/P1_gu_hwpd/GF2'
p39
sg7
F0.12427360644684401
sg8
F25.6309376
sg9
F1.0
sg10
F1.1763817362018076
sg11
F0.0014619320091599853
sg12
I2
sg13
I2
sg14
I270
sg15
I0
sg16
I25600
sg17
F0.0011366705728403945
sg18
I-1
sg19
I12
sg20
g21
sg22
F2.2049695440939563
sg23
g24
sg25
F0.06034194807025234
sa(dp40
g2
F0.3980479628198823
sg3
S'P0_dxu_hwp'
p41
sg5
S'/global/cscratch1/sd/frankfu/higgs-classifier/MG5/vh/SubProcesses/P0_dxu_hwp/GF1'
p42
sg7
F0.4394033111701003
sg8
F3.35617089
sg9
F1.0
sg10
F0.326420469746747
sg11
F0.0014343023524042017
sg12
I2
sg13
I2
sg14
I971
sg15
I0
sg16
I8960
sg17
F0.0015618969667319795
sg18
I-1
sg19
I12
sg20
g21
sg22
F0.392389137144948
sg23
g32
sg25
F0.03209054663896234
sa(dp43
g2
F0.39742631385395577
sg3
S'P0_udx_hwp'
p44
sg5
S'/global/cscratch1/sd/frankfu/higgs-classifier/MG5/vh/SubProcesses/P0_udx_hwp/GF1'
p45
sg7
F0.43673885785777516
sg8
F3.18757296
sg9
F1.0
sg10
F0.3163531963465484
sg11
F0.0013816373365204805
sg12
I2
sg13
I2
sg14
I908
sg15
I0
sg16
I8960
sg17
F0.0015088168449905143
sg18
I-1
sg19
I12
sg20
g21
sg22
F0.3796469414315044
sg23
g32
sg25
F0.0321882866818454
sa(dp46
g2
F0.034306281910134795
sg3
S'P1_dg_hwmu'
p47
sg5
S'/global/cscratch1/sd/frankfu/higgs-classifier/MG5/vh/SubProcesses/P1_dg_hwmu/GF2'
p48
sg7
F0.07564505086846832
sg8
F25.7269764
sg9
F1.0
sg10
F1.4384965354576265
sg11
F0.0010881514359880758
sg12
I2
sg13
I2
sg14
I176
sg15
I0
sg16
I25600
sg17
F0.0009385126187349384
sg18
I-1
sg19
I12
sg20
g21
sg22
F2.735687362429334
sg23
g24
sg25
F0.07734255557375752
sa(dp49
g2
F0.0329072538136565
sg3
S'P1_uxd_hwmg'
p50
sg5
S'/global/cscratch1/sd/frankfu/higgs-classifier/MG5/vh/SubProcesses/P1_uxd_hwmg/GF1'
p51
sg7
F0.07090287065393693
sg8
F20.0288506
sg9
F1.0
sg10
F1.2750440643716445
sg11
F0.0009040428437421274
sg12
I2
sg13
I2
sg14
I143
sg15
I0
sg16
I25600
sg17
F0.0008529461669625166
sg18
I-1
sg19
I12
sg20
g21
sg22
F2.5919700616541395
sg23
g32
sg25
F0.07988713903755346
sa(dp52
g2
F0.03300889834264352
sg3
g50
sg5
S'/global/cscratch1/sd/frankfu/higgs-classifier/MG5/vh/SubProcesses/P1_uxd_hwmg/GF2'
p53
sg7
F0.07054558958763778
sg8
F20.4111538
sg9
F1.0
sg10
F1.2476879121579207
sg11
F0.0008801887938454932
sg12
I2
sg13
I2
sg14
I180
sg15
I0
sg16
I25600
sg17
F0.000771577755733774
sg18
I-1
sg19
I12
sg20
g21
sg22
F2.337484116326865
sg23
g24
sg25
F0.08008917941575029
sa(dp54
g2
F0.03354096577236793
sg3
S'P1_dux_hwmg'
p55
sg5
S'/global/cscratch1/sd/frankfu/higgs-classifier/MG5/vh/SubProcesses/P1_dux_hwmg/GF2'
p56
sg7
F0.07227048004020831
sg8
F20.2692127
sg9
F1.0
sg10
F1.2126178442303883
sg11
F0.0008763647370785269
sg12
I2
sg13
I2
sg14
I163
sg15
I0
sg16
I25600
sg17
F0.0008364905078530442
sg18
I-1
sg19
I12
sg20
g21
sg22
F2.4939368577817476
sg23
g24
sg25
F0.07912765730486714
sa(dp57
g2
F0.24107734821239707
sg3
S'P0_uxd_hwm'
p58
sg5
S'/global/cscratch1/sd/frankfu/higgs-classifier/MG5/vh/SubProcesses/P0_uxd_hwm/GF1'
p59
sg7
F0.26645255062244294
sg8
F3.16462803
sg9
F1.0
sg10
F0.3158367712393126
sg11
F0.0008415551327707187
sg12
I2
sg13
I2
sg14
I579
sg15
I0
sg16
I8960
sg17
F0.0009471833592756574
sg18
I-1
sg19
I12
sg20
g21
sg22
F0.39289604199609734
sg23
g32
sg25
F0.041209641529026245
sa(dp60
g2
F0.033325384965154234
sg3
g55
sg5
S'/global/cscratch1/sd/frankfu/higgs-classifier/MG5/vh/SubProcesses/P1_dux_hwmg/GF1'
p61
sg7
F0.0709653818263058
sg8
F19.9186306
sg9
F1.0
sg10
F1.1767088204748577
sg11
F0.0008350559074338018
sg12
I2
sg13
I2
sg14
I166
sg15
I0
sg16
I25600
sg17
F0.0007678545777100649
sg18
I-1
sg19
I12
sg20
g21
sg22
F2.3041131513197843
sg23
g32
sg25
F0.07985194625197711
sa(dp62
g2
F0.03015576831553666
sg3
g38
sg5
S'/global/cscratch1/sd/frankfu/higgs-classifier/MG5/vh/SubProcesses/P1_gu_hwpd/GF1'
p63
sg7
F0.0708024655765087
sg8
F27.2968674
sg9
F1.0
sg10
F1.1622103211514456
sg11
F0.0008228735625598833
sg12
I2
sg13
I2
sg14
I165
sg15
I0
sg16
I25600
sg17
F0.000607017242092904
sg18
I-1
sg19
I12
sg20
g21
sg22
F2.012939069372544
sg23
g32
sg25
F0.07994376300294481
sa(dp64
g2
F0.0260435692389276
sg3
S'P1_gu_hzu'
p65
sg5
S'/global/cscratch1/sd/frankfu/higgs-classifier/MG5/vh/SubProcesses/P1_gu_hzu/GF2'
p66
sg7
F0.06307273621505641
sg8
F35.2460632
sg9
F1.0
sg10
F1.3028306159516208
sg11
F0.0008217309177281604
sg12
I2
sg13
I2
sg14
I165
sg15
I0
sg16
I25600
sg17
F0.0007638225357370884
sg18
I-1
sg19
I12
sg20
g21
sg22
F2.9328642657604505
sg23
g24
sg25
F0.08470088375688824
sa(dp67
g2
F0.23994429886558657
sg3
S'P0_dux_hwm'
p68
sg5
S'/global/cscratch1/sd/frankfu/higgs-classifier/MG5/vh/SubProcesses/P0_dux_hwm/GF1'
p69
sg7
F0.26492604682724474
sg8
F3.19562078
sg9
F1.0
sg10
F0.30323602917479886
sg11
F0.0008033512246487051
sg12
I2
sg13
I2
sg14
I562
sg15
I0
sg16
I8960
sg17
F0.0009049728262381664
sg18
I-1
sg19
I12
sg20
g21
sg22
F0.37715954515973704
sg23
g32
sg25
F0.04132819596717494
sa(dp70
g2
F0.02408538005037473
sg3
S'P1_uxu_hzg'
p71
sg5
S'/global/cscratch1/sd/frankfu/higgs-classifier/MG5/vh/SubProcesses/P1_uxu_hzg/GF2'
p72
sg7
F0.05796219864296442
sg8
F29.3676262
sg9
F1.0
sg10
F1.3628285177559938
sg11
F0.0007899253726246967
sg12
I2
sg13
I2
sg14
I135
sg15
I0
sg16
I25600
sg17
F0.0008192802728147114
sg18
I-1
sg19
I12
sg20
g21
sg22
F3.4015667226391337
sg23
g24
sg25
F0.08835606219261734
sa(dp73
g2
F0.032256379816811044
sg3
S'P1_gd_hwmu'
p74
sg5
S'/global/cscratch1/sd/frankfu/higgs-classifier/MG5/vh/SubProcesses/P1_gd_hwmu/GF2'
p75
sg7
F0.07574851780267454
sg8
F25.7749481
sg9
F1.0
sg10
F1.0068921210425963
sg11
F0.0007627058575616783
sg12
I2
sg13
I2
sg14
I166
sg15
I0
sg16
I25600
sg17
F0.00061505923546756
sg18
I-1
sg19
I12
sg20
g21
sg22
F1.906783212997169
sg23
g24
sg25
F0.0772897153870365
sa(dp76
g2
F0.02263535762391342
sg3
S'P1_ddx_hzg'
p77
sg5
S'/global/cscratch1/sd/frankfu/higgs-classifier/MG5/vh/SubProcesses/P1_ddx_hzg/GF1'
p78
sg7
F0.049408773906883335
sg8
F28.2049999
sg9
F1.0
sg10
F1.5088907983580913
sg11
F0.0007455244430625162
sg12
I2
sg13
I2
sg14
I105
sg15
I0
sg16
I25600
sg17
F0.00064899579875134
sg18
I-1
sg19
I12
sg20
g21
sg22
F2.86717713735479
sg23
g32
sg25
F0.09569885447123579
sa(dp79
g2
F0.025850497076729904
sg3
g71
sg5
S'/global/cscratch1/sd/frankfu/higgs-classifier/MG5/vh/SubProcesses/P1_uxu_hzg/GF1'
p80
sg7
F0.0577935932442983
sg8
F27.8934727
sg9
F1.0
sg10
F1.2713986781926208
sg11
F0.0007347869805880284
sg12
I2
sg13
I2
sg14
I137
sg15
I0
sg16
I25600
sg17
F0.0006439898093421788
sg18
I-1
sg19
I12
sg20
g21
sg22
F2.491208611697782
sg23
g32
sg25
F0.08848485207076562
sa(dp81
g2
F0.025800624584559485
sg3
S'P1_uux_hzg'
p82
sg5
S'/global/cscratch1/sd/frankfu/higgs-classifier/MG5/vh/SubProcesses/P1_uux_hzg/GF1'
p83
sg7
F0.0558656408484649
sg8
F27.5407867
sg9
F1.0
sg10
F1.2062576145327268
sg11
F0.0006738835466421133
sg12
I2
sg13
I2
sg14
I98
sg15
I0
sg16
I25600
sg17
F0.0006218648209559776
sg18
I-1
sg19
I12
sg20
g21
sg22
F2.4102704138726
sg23
g32
sg25
F0.0899987308596787
sa(dp84
g2
F0.025848711880848904
sg3
S'P1_ug_hzu'
p85
sg5
S'/global/cscratch1/sd/frankfu/higgs-classifier/MG5/vh/SubProcesses/P1_ug_hzu/GF2'
p86
sg7
F0.06275215603309679
sg8
F35.372139
sg9
F1.0
sg10
F1.0737783733666513
sg11
F0.0006738190803046896
sg12
I2
sg13
I2
sg14
I140
sg15
I0
sg16
I25600
sg17
F0.0006100042669904126
sg18
I-1
sg19
I12
sg20
g21
sg22
F2.3599019935781005
sg23
g24
sg25
F0.08491696265566544
sa(dp87
g2
F0.025674230345073542
sg3
g82
sg5
S'/global/cscratch1/sd/frankfu/higgs-classifier/MG5/vh/SubProcesses/P1_uux_hzg/GF2'
p88
sg7
F0.056168569596618874
sg8
F25.8221741
sg9
F1.0
sg10
F1.1925059414967232
sg11
F0.0006698135296934021
sg12
I2
sg13
I2
sg14
I130
sg15
I0
sg16
I25600
sg17
F0.0006162310865594025
sg18
I-1
sg19
I12
sg20
g21
sg22
F2.4001930273156056
sg23
g24
sg25
F0.08975571184069725
sa(dp89
g2
F0.022968484827666762
sg3
S'P1_dxd_hzg'
p90
sg5
S'/global/cscratch1/sd/frankfu/higgs-classifier/MG5/vh/SubProcesses/P1_dxd_hzg/GF1'
p91
sg7
F0.04903611931244925
sg8
F27.8900509
sg9
F1.0
sg10
F1.2846603430868084
sg11
F0.0006299475785957673
sg12
I2
sg13
I2
sg14
I103
sg15
I0
sg16
I25600
sg17
F0.0005030928146343712
sg18
I-1
sg19
I12
sg20
g21
sg22
F2.1903613512562616
sg23
g32
sg25
F0.09606180242864636
sa(dp92
g2
F0.023577935830474288
sg3
g77
sg5
S'/global/cscratch1/sd/frankfu/higgs-classifier/MG5/vh/SubProcesses/P1_ddx_hzg/GF2'
p93
sg7
F0.04857780514432775
sg8
F27.5260563
sg9
F1.0
sg10
F1.2884861106443726
sg11
F0.0006259182721405506
sg12
I2
sg13
I2
sg14
I113
sg15
I0
sg16
I25600
sg17
F0.0005687258192681565
sg18
I-1
sg19
I12
sg20
g21
sg22
F2.412110302434037
sg23
g24
sg25
F0.09651389292972522
sa(dp94
g2
F0.0317955025274788
sg3
g4
sg5
S'/global/cscratch1/sd/frankfu/higgs-classifier/MG5/vh/SubProcesses/P1_ug_hwpd/GF1'
p95
sg7
F0.06961019191840187
sg8
F27.1566696
sg9
F1.0
sg10
F0.8964701955200303
sg11
F0.0006240346235927656
sg12
I2
sg13
I2
sg14
I159
sg15
I0
sg16
I25600
sg17
F0.0005390725991952334
sg18
I-1
sg19
I12
sg20
g21
sg22
F1.6954366383401167
sg23
g32
sg25
F0.08062548908050993
sa(dp96
g2
F0.02199991784540037
sg3
g90
sg5
S'/global/cscratch1/sd/frankfu/higgs-classifier/MG5/vh/SubProcesses/P1_dxd_hzg/GF2'
p97
sg7
F0.04840642251481714
sg8
F27.0779839
sg9
F1.0
sg10
F1.2704639836029652
sg11
F0.0006149861638014285
sg12
I2
sg13
I2
sg14
I108
sg15
I0
sg16
I25600
sg17
F0.0006203183604920646
sg18
I-1
sg19
I12
sg20
g21
sg22
F2.8196394407070824
sg23
g24
sg25
F0.09668459538100146
sa(dp98
g2
F0.17512390084007412
sg3
S'P0_uux_hz'
p99
sg5
S'/global/cscratch1/sd/frankfu/higgs-classifier/MG5/vh/SubProcesses/P0_uux_hz/GF1'
p100
sg7
F0.19312732517184772
sg8
F3.88290095
sg9
F1.0
sg10
F0.31055569269817196
sg11
F0.0005997679024768827
sg12
I2
sg13
I2
sg14
I427
sg15
I0
sg16
I8960
sg17
F0.000654437846895267
sg18
I-1
sg19
I12
sg20
g21
sg22
F0.37369990261518327
sg23
g32
sg25
F0.0484046311312324
sa(dp101
g2
F0.1752237088461096
sg3
S'P0_uxu_hz'
p102
sg5
S'/global/cscratch1/sd/frankfu/higgs-classifier/MG5/vh/SubProcesses/P0_uxu_hz/GF1'
p103
sg7
F0.19317996122763934
sg8
F3.94395399
sg9
F1.0
sg10
F0.3088617965209806
sg11
F0.0005966590987662207
sg12
I2
sg13
I2
sg14
I412
sg15
I0
sg16
I8960
sg17
F0.0006731186693884069
sg18
I-1
sg19
I12
sg20
g21
sg22
F0.3841481691153873
sg23
g32
sg25
F0.048398036237991375
sa(dp104
g2
F0.020008404967094866
sg3
S'P1_gd_hzd'
p105
sg5
S'/global/cscratch1/sd/frankfu/higgs-classifier/MG5/vh/SubProcesses/P1_gd_hzd/GF2'
p106
sg7
F0.048763410406396486
sg8
F33.9229813
sg9
F1.0
sg10
F1.1276795539011575
sg11
F0.0005498950089378426
sg12
I2
sg13
I2
sg14
I109
sg15
I0
sg16
I25600
sg17
F0.0004994453631631785
sg18
I-1
sg19
I12
sg20
g21
sg22
F2.496177801201791
sg23
g24
sg25
F0.09633004027752752
sa(dp107
g2
F0.15935980160738192
sg3
S'P0_dxd_hz'
p108
sg5
S'/global/cscratch1/sd/frankfu/higgs-classifier/MG5/vh/SubProcesses/P0_dxd_hz/GF1'
p109
sg7
F0.17519021057861492
sg8
F4.01020908
sg9
F1.0
sg10
F0.31086127978660544
sg11
F0.0005445985306655314
sg12
I2
sg13
I2
sg14
I399
sg15
I0
sg16
I8960
sg17
F0.0005979247981511625
sg18
I-1
sg19
I12
sg20
g21
sg22
F0.37520428120529564
sg23
g32
sg25
F0.050822246741420836
sa(dp110
g2
F0.15875899829357187
sg3
S'P0_ddx_hz'
p111
sg5
S'/global/cscratch1/sd/frankfu/higgs-classifier/MG5/vh/SubProcesses/P0_ddx_hz/GF1'
p112
sg7
F0.17450175263202028
sg8
F3.74851584
sg9
F1.0
sg10
F0.29969035396743515
sg11
F0.0005229649201422796
sg12
I2
sg13
I2
sg14
I355
sg15
I0
sg16
I8960
sg17
F0.0005735153764626666
sg18
I-1
sg19
I12
sg20
g21
sg22
F0.3612490521023199
sg23
g32
sg25
F0.050922402002616635
sa(dp113
g2
F0.01999335494522438
sg3
S'P1_dg_hzd'
p114
sg5
S'/global/cscratch1/sd/frankfu/higgs-classifier/MG5/vh/SubProcesses/P1_dg_hzd/GF2'
p115
sg7
F0.047654978653985915
sg8
F34.862381
sg9
F1.0
sg10
F1.0750409172082334
sg11
F0.000512310519617198
sg12
I2
sg13
I2
sg14
I132
sg15
I0
sg16
I25600
sg17
F0.00045221451919528593
sg18
I-1
sg19
I12
sg20
g21
sg22
F2.261824093226045
sg23
g24
sg25
F0.09744389564474595
sa(dp116
g2
F0.017921322986134754
sg3
g47
sg5
S'/global/cscratch1/sd/frankfu/higgs-classifier/MG5/vh/SubProcesses/P1_dg_hwmu/GF1'
p117
sg7
F0.04111623378250875
sg8
F26.3824692
sg9
F1.0
sg10
F0.8965986264321834
sg11
F0.00036864758733461876
sg12
I2
sg13
I2
sg14
I69
sg15
I0
sg16
I25600
sg17
F0.00032723814919921433
sg18
I-1
sg19
I12
sg20
g21
sg22
F1.825970936701435
sg23
g32
sg25
F0.1049064315002016
sa(dp118
g2
F0.018744090042594756
sg3
g74
sg5
S'/global/cscratch1/sd/frankfu/higgs-classifier/MG5/vh/SubProcesses/P1_gd_hwmu/GF1'
p119
sg7
F0.04120940292811859
sg8
F26.5010052
sg9
F1.0
sg10
F0.8740534327119073
sg11
F0.00036019220089330173
sg12
I2
sg13
I2
sg14
I98
sg15
I0
sg16
I25600
sg17
F0.0002956409916811177
sg18
I-1
sg19
I12
sg20
g21
sg22
F1.5772491009661838
sg23
g32
sg25
F0.10478777443878708
sa(dp120
g2
F0.013145609600257464
sg3
S'P1_gdx_hwpux'
p121
sg5
S'/global/cscratch1/sd/frankfu/higgs-classifier/MG5/vh/SubProcesses/P1_gdx_hwpux/GF2'
p122
sg7
F0.03191662389955122
sg8
F26.2893639
sg9
F1.0
sg10
F1.0296687255621408
sg11
F0.00032863549454897076
sg12
I2
sg13
I2
sg14
I66
sg15
I0
sg16
I25600
sg17
F0.0002790804761904595
sg18
I-1
sg19
I12
sg20
g21
sg22
F2.1229937954721665
sg23
g24
sg25
F0.11906943824678598
sa(dp123
g2
F0.011004624737247247
sg3
S'P1_uxg_hwmdx'
p124
sg5
S'/global/cscratch1/sd/frankfu/higgs-classifier/MG5/vh/SubProcesses/P1_uxg_hwmdx/GF2'
p125
sg7
F0.026581341983772815
sg8
F24.3116074
sg9
F1.0
sg10
F1.053640670472182
sg11
F0.0002800718298983275
sg12
I2
sg13
I2
sg14
I54
sg15
I0
sg16
I25600
sg17
F0.0002184123444341607
sg18
I-1
sg19
I12
sg20
g21
sg22
F1.984732325264146
sg23
g24
sg25
F0.13047290322521954
sa(dp126
g2
F0.013465822598227128
sg3
g85
sg5
S'/global/cscratch1/sd/frankfu/higgs-classifier/MG5/vh/SubProcesses/P1_ug_hzu/GF1'
p127
sg7
F0.03065741889910528
sg8
F39.9325409
sg9
F1.0
sg10
F0.8976642751419451
sg11
F0.0002752006971378831
sg12
I2
sg13
I2
sg14
I62
sg15
I0
sg16
I25600
sg17
F0.00024382587741008605
sg18
I-1
sg19
I12
sg20
g21
sg22
F1.810701690383085
sg23
g32
sg25
F0.12149012632870955
sa(dp128
g2
F0.00842560102011415
sg3
S'P1_gdx_hzdx'
p129
sg5
S'/global/cscratch1/sd/frankfu/higgs-classifier/MG5/vh/SubProcesses/P1_gdx_hzdx/GF2'
p130
sg7
F0.020803248819673013
sg8
F33.2564011
sg9
F1.0
sg10
F1.3197947282860443
sg11
F0.00027456018123427317
sg12
I2
sg13
I2
sg14
I43
sg15
I0
sg16
I25600
sg17
F0.0002647883569956596
sg18
I-1
sg19
I12
sg20
g21
sg22
F3.1426643198929
sg23
g24
sg25
F0.14748341863766953
sa(dp131
g2
F0.011328466936349627
sg3
S'P1_gux_hwmdx'
p132
sg5
S'/global/cscratch1/sd/frankfu/higgs-classifier/MG5/vh/SubProcesses/P1_gux_hwmdx/GF2'
p133
sg7
F0.027094132797234615
sg8
F25.3337002
sg9
F1.0
sg10
F0.9564209045527381
sg11
F0.00025913394998003137
sg12
I2
sg13
I2
sg14
I66
sg15
I0
sg16
I25600
sg17
F0.00022951767204021636
sg18
I-1
sg19
I12
sg20
g21
sg22
F2.0260258809050633
sg23
g24
sg25
F0.12923232274150395
sa(dp134
g2
F0.013356084199050315
sg3
g65
sg5
S'/global/cscratch1/sd/frankfu/higgs-classifier/MG5/vh/SubProcesses/P1_gu_hzu/GF1'
p135
sg7
F0.029976088084966147
sg8
F39.5369301
sg9
F1.0
sg10
F0.834510926495972
sg11
F0.00025015373040509966
sg12
I2
sg13
I2
sg14
I73
sg15
I0
sg16
I25600
sg17
F0.0001856442533144685
sg18
I-1
sg19
I12
sg20
g21
sg22
F1.3899601900358545
sg23
g32
sg25
F0.12286305207557936
sa(dp136
g2
F0.010054369220397834
sg3
g114
sg5
S'/global/cscratch1/sd/frankfu/higgs-classifier/MG5/vh/SubProcesses/P1_dg_hzd/GF1'
p137
sg7
F0.02308872552666142
sg8
F37.5987511
sg9
F1.0
sg10
F1.0539315164380372
sg11
F0.00024333935506935887
sg12
I2
sg13
I2
sg14
I54
sg15
I0
sg16
I25600
sg17
F0.0001779354584587975
sg18
I-1
sg19
I12
sg20
g21
sg22
F1.7697326859432452
sg23
g32
sg25
F0.139993798381829
sa(dp138
g2
F0.00986946245269468
sg3
g105
sg5
S'/global/cscratch1/sd/frankfu/higgs-classifier/MG5/vh/SubProcesses/P1_gd_hzd/GF1'
p139
sg7
F0.022910912090989864
sg8
F32.7004204
sg9
F1.0
sg10
F1.0313732424744568
sg11
F0.00023629701691331453
sg12
I2
sg13
I2
sg14
I51
sg15
I0
sg16
I25600
sg17
F0.000222033156462907
sg18
I-1
sg19
I12
sg20
g21
sg22
F2.2496985780850185
sg23
g32
sg25
F0.14053599997490604
sa(dp140
g2
F0.008481238853438459
sg3
S'P1_dxg_hzdx'
p141
sg5
S'/global/cscratch1/sd/frankfu/higgs-classifier/MG5/vh/SubProcesses/P1_dxg_hzdx/GF2'
p142
sg7
F0.020169891576124376
sg8
F36.7346764
sg9
F1.0
sg10
F1.0584531265649078
sg11
F0.0002134888480122404
sg12
I2
sg13
I2
sg14
I52
sg15
I0
sg16
I25600
sg17
F0.00018729234493072052
sg18
I-1
sg19
I12
sg20
g21
sg22
F2.208313527861423
sg23
g24
sg25
F0.14978109314048932
sa(dp143
g2
F0.007874954647132159
sg3
g121
sg5
S'/global/cscratch1/sd/frankfu/higgs-classifier/MG5/vh/SubProcesses/P1_gdx_hwpux/GF1'
p144
sg7
F0.017139382473610996
sg8
F26.2110519
sg9
F1.0
sg10
F1.1363405976778356
sg11
F0.0001947617612389214
sg12
I2
sg13
I2
sg14
I34
sg15
I0
sg16
I25600
sg17
F0.00018484392033604253
sg18
I-1
sg19
I12
sg20
g21
sg22
F2.3472379031840847
sg23
g32
sg25
F0.16248422095752754
sa(dp145
g2
F0.005442674748676698
sg3
S'P1_gux_hzux'
p146
sg5
S'/global/cscratch1/sd/frankfu/higgs-classifier/MG5/vh/SubProcesses/P1_gux_hzux/GF2'
p147
sg7
F0.01362788809673826
sg8
F35.0225334
sg9
F1.0
sg10
F1.0954162390030944
sg11
F0.0001492820992448406
sg12
I2
sg13
I2
sg14
I42
sg15
I0
sg16
I25600
sg17
F0.00012497792865629362
sg18
I-1
sg19
I12
sg20
g21
sg22
F2.2962593656121024
sg23
g24
sg25
F0.18221935217194601
sa(dp148
g2
F0.006210607055463768
sg3
g132
sg5
S'/global/cscratch1/sd/frankfu/higgs-classifier/MG5/vh/SubProcesses/P1_gux_hwmdx/GF1'
p149
sg7
F0.014097732882492863
sg8
F26.5692635
sg9
F1.0
sg10
F0.9417081382167396
sg11
F0.00013275949785849264
sg12
I2
sg13
I2
sg14
I33
sg15
I0
sg16
I25600
sg17
F0.00010802332376177408
sg18
I-1
sg19
I12
sg20
g21
sg22
F1.7393359907827497
sg23
g32
sg25
F0.1791571474367363
sa(dp150
g2
F0.006281920296683363
sg3
g124
sg5
S'/global/cscratch1/sd/frankfu/higgs-classifier/MG5/vh/SubProcesses/P1_uxg_hwmdx/GF1'
p151
sg7
F0.01403954483282564
sg8
F26.6190224
sg9
F1.0
sg10
F0.9128063795329753
sg11
F0.00012815386089142463
sg12
I2
sg13
I2
sg14
I39
sg15
I0
sg16
I25600
sg17
F0.00010799654888135772
sg18
I-1
sg19
I12
sg20
g21
sg22
F1.7191645831351312
sg23
g32
sg25
F0.179528029321722
sa(dp152
g2
F0.003995157734241173
sg3
g129
sg5
S'/global/cscratch1/sd/frankfu/higgs-classifier/MG5/vh/SubProcesses/P1_gdx_hzdx/GF1'
p153
sg7
F0.009134582656252629
sg8
F34.9287758
sg9
F1.0
sg10
F1.0592051045376396
sg11
F9.675396577323776e-05
sg12
I2
sg13
I2
sg14
I17
sg15
I0
sg16
I25600
sg17
F7.713877358623849e-05
sg18
I-1
sg19
I12
sg20
g21
sg22
F1.9308067094599952
sg23
g32
sg25
F0.2
sa(dp154
g2
F0.004057530580925025
sg3
g141
sg5
S'/global/cscratch1/sd/frankfu/higgs-classifier/MG5/vh/SubProcesses/P1_dxg_hzdx/GF1'
p155
sg7
F0.00928913121260348
sg8
F35.3928909
sg9
F1.0
sg10
F1.0389145770296324
sg11
F9.650613824714701e-05
sg12
I2
sg13
I2
sg14
I21
sg15
I0
sg16
I25600
sg17
F6.902117064001379e-05
sg18
I-1
sg19
I12
sg20
g21
sg22
F1.7010634735445056
sg23
g32
sg25
F0.2
sa(dp156
g2
F0.0026475017743671173
sg3
g146
sg5
S'/global/cscratch1/sd/frankfu/higgs-classifier/MG5/vh/SubProcesses/P1_gux_hzux/GF1'
p157
sg7
F0.006057189511662737
sg8
F38.4467316
sg9
F1.0
sg10
F0.9314511790102792
sg11
F5.6419763121269535e-05
sg12
I2
sg13
I2
sg14
I10
sg15
I0
sg16
I25600
sg17
F5.1141519564154745e-05
sg18
I-1
sg19
I12
sg20
g21
sg22
F1.9316897181827224
sg23
g32
sg25
F0.2
sa(dp158
g2
F2.0364386184853007e-05
sg3
S'P1_dxg_hwpux'
p159
sg5
S'/global/cscratch1/sd/frankfu/higgs-classifier/MG5/vh/SubProcesses/P1_dxg_hwpux/GF2'
p160
sg7
F4.254945950755924e-05
sg8
F21.8240356
sg9
F1.0
sg10
F1.7716033820153594
sg11
F7.538076636651754e-07
sg12
I2
sg13
I2
sg14
I0
sg15
I0
sg16
I38400
sg17
F6.785237629127491e-07
sg18
I-1
sg19
I12
sg20
g21
sg22
F3.3319136494152413
sg23
g24
sg25
F0.2
sa(dp161
g2
F1.9447174329944766e-05
sg3
g159
sg5
S'/global/cscratch1/sd/frankfu/higgs-classifier/MG5/vh/SubProcesses/P1_dxg_hwpux/GF1'
p162
sg7
F4.079218663115639e-05
sg8
F21.7965813
sg9
F1.0
sg10
F1.8428804361732256
sg11
F7.51751226912851e-07
sg12
I2
sg13
I2
sg14
I0
sg15
I0
sg16
I38400
sg17
F8.204900591039544e-07
sg18
I-1
sg19
I12
sg20
g21
sg22
F4.2190708284059735
sg23
g32
sg25
F0.2
sa(dp163
g2
F7.710888760972812e-06
sg3
S'P1_uxg_hzux'
p164
sg5
S'/global/cscratch1/sd/frankfu/higgs-classifier/MG5/vh/SubProcesses/P1_uxg_hzux/GF2'
p165
sg7
F1.7723147582653244e-05
sg8
F32.5453644
sg9
F1.0
sg10
F2.4459060982285283
sg11
F4.334915475221577e-07
sg12
I2
sg13
I2
sg14
I0
sg15
I0
sg16
I51200
sg17
F4.028137040428284e-07
sg18
I-1
sg19
I12
sg20
g21
sg22
F5.2239594750944
sg23
g24
sg25
F0.2
sa(dp166
g2
F7.678171062013482e-06
sg3
g164
sg5
S'/global/cscratch1/sd/frankfu/higgs-classifier/MG5/vh/SubProcesses/P1_uxg_hzux/GF1'
p167
sg7
F1.7150353148070964e-05
sg8
F32.0942688
sg9
F1.0
sg10
F2.070648877088547
sg11
F3.551235948772517e-07
sg12
I2
sg13
I2
sg14
I0
sg15
I0
sg16
I38400
sg17
F3.7228944549170994e-07
sg18
I-1
sg19
I12
sg20
g21
sg22
F4.848673498999679
sg23
g32
sg25
F0.2
sa.